target datalayout = "e-m:e-p270:32:32-p271:32:32-p272:64:64-i64:64-i128:128-f80:128-n8:16:32:64-S128"
target triple = "x86_64-pc-linux-gnu"

%"class.Ipopt::SmartPtr.10" = type { ptr }
%"class.Ipopt::SmartPtr.11" = type { ptr }
%"class.Ipopt::IndexPCalculator" = type { %"class.Ipopt::PCalculator", i32, i32, %"class.std::map" }
%"class.Ipopt::PCalculator" = type { %"class.Ipopt::AlgorithmStrategyObject.base", %"class.Ipopt::SmartPtr.10", %"class.Ipopt::SmartPtr.16", %"class.Ipopt::SmartPtr.11" }
%"class.Ipopt::AlgorithmStrategyObject.base" = type <{ %"class.Ipopt::ReferencedObject.base", [4 x i8], %"class.Ipopt::SmartPtr.12", %"class.Ipopt::SmartPtr.13", %"class.Ipopt::SmartPtr.14", %"class.Ipopt::SmartPtr.15", i8 }>
%"class.Ipopt::ReferencedObject.base" = type <{ ptr, i32 }>
%"class.Ipopt::SmartPtr.12" = type { ptr }
%"class.Ipopt::SmartPtr.13" = type { ptr }
%"class.Ipopt::SmartPtr.14" = type { ptr }
%"class.Ipopt::SmartPtr.15" = type { ptr }
%"class.Ipopt::SmartPtr.16" = type { ptr }
%"class.std::map" = type { %"class.std::_Rb_tree" }
%"class.std::_Rb_tree" = type { %"struct.std::_Rb_tree<int, std::pair<const int, Ipopt::SmartPtr<Ipopt::PColumn>>, std::_Select1st<std::pair<const int, Ipopt::SmartPtr<Ipopt::PColumn>>>, std::less<int>>::_Rb_tree_impl" }
%"struct.std::_Rb_tree<int, std::pair<const int, Ipopt::SmartPtr<Ipopt::PColumn>>, std::_Select1st<std::pair<const int, Ipopt::SmartPtr<Ipopt::PColumn>>>, std::less<int>>::_Rb_tree_impl" = type { [8 x i8], %"struct.std::_Rb_tree_header" }
%"struct.std::_Rb_tree_header" = type { %"struct.std::_Rb_tree_node_base", i64 }
%"struct.std::_Rb_tree_node_base" = type { i32, ptr, ptr, ptr }
%"class.std::__cxx11::basic_string" = type { %"struct.std::__cxx11::basic_string<char>::_Alloc_hider", i64, %union.anon }
%"struct.std::__cxx11::basic_string<char>::_Alloc_hider" = type { ptr }
%union.anon = type { i64, [8 x i8] }
%"struct.std::_Rb_tree_const_iterator" = type { ptr }
%"struct.std::pair" = type { i32, %"class.Ipopt::SmartPtr.41" }
%"class.Ipopt::SmartPtr.41" = type { ptr }
%"struct.std::_Rb_tree_node" = type { %"struct.std::_Rb_tree_node_base", %"struct.__gnu_cxx::__aligned_membuf" }
%"struct.__gnu_cxx::__aligned_membuf" = type { [16 x i8] }

@.str.2 = private unnamed_addr constant [54 x i8] c"%sIndexPCalculator \22%s\22 with %d rows and %d columns:\0A\00", align 1
@.str.3 = private unnamed_addr constant [23 x i8] c"%s%s[%5d,%5d]=%23.16e\0A\00", align 1

; Function Attrs: mustprogress nounwind uwtable
define linkonce_odr noundef ptr @_ZNK9__gnu_cxx16__aligned_membufISt4pairIKiN5Ipopt8SmartPtrINS3_7PColumnEEEEE7_M_addrEv(ptr noundef nonnull align 8 dereferenceable(16) %0) #6 comdat align 2 {
  %2 = alloca ptr, align 8
  store ptr %0, ptr %2, align 8, !tbaa !257
  %3 = load ptr, ptr %2, align 8
  %4 = getelementptr inbounds nuw %"struct.__gnu_cxx::__aligned_membuf", ptr %3, i32 0, i32 0
  ret ptr %4
}

; Function Attrs: mustprogress nounwind uwtable
define linkonce_odr noundef ptr @_ZNK9__gnu_cxx16__aligned_membufISt4pairIKiN5Ipopt8SmartPtrINS3_7PColumnEEEEE6_M_ptrEv(ptr noundef nonnull align 8 dereferenceable(16) %0) #6 comdat align 2 {
  %2 = alloca ptr, align 8
  store ptr %0, ptr %2, align 8, !tbaa !257
  %3 = load ptr, ptr %2, align 8
  %4 = call noundef ptr @_ZNK9__gnu_cxx16__aligned_membufISt4pairIKiN5Ipopt8SmartPtrINS3_7PColumnEEEEE7_M_addrEv(ptr noundef nonnull align 8 dereferenceable(16) %3) #3
  ret ptr %4
}

; Function Attrs: mustprogress nounwind uwtable
define linkonce_odr void @_ZNSt23_Rb_tree_const_iteratorISt4pairIKiN5Ipopt8SmartPtrINS2_7PColumnEEEEEC2EPKSt18_Rb_tree_node_base(ptr noundef nonnull align 8 dereferenceable(8) %0, ptr noundef %1) unnamed_addr #6 comdat align 2 {
  %3 = alloca ptr, align 8
  %4 = alloca ptr, align 8
  store ptr %0, ptr %3, align 8, !tbaa !207
  store ptr %1, ptr %4, align 8, !tbaa !119
  %5 = load ptr, ptr %3, align 8
  %6 = getelementptr inbounds nuw %"struct.std::_Rb_tree_const_iterator", ptr %5, i32 0, i32 0
  %7 = load ptr, ptr %4, align 8, !tbaa !119
  store ptr %7, ptr %6, align 8, !tbaa !209
  ret void
}

; Function Attrs: mustprogress nounwind uwtable
define linkonce_odr noundef ptr @_ZNKSt13_Rb_tree_nodeISt4pairIKiN5Ipopt8SmartPtrINS2_7PColumnEEEEE9_M_valptrEv(ptr noundef nonnull align 8 dereferenceable(48) %0) #6 comdat align 2 {
  %2 = alloca ptr, align 8
  store ptr %0, ptr %2, align 8, !tbaa !250
  %3 = load ptr, ptr %2, align 8
  %4 = getelementptr inbounds nuw %"struct.std::_Rb_tree_node", ptr %3, i32 0, i32 1
  %5 = call noundef ptr @_ZNK9__gnu_cxx16__aligned_membufISt4pairIKiN5Ipopt8SmartPtrINS3_7PColumnEEEEE6_M_ptrEv(ptr noundef nonnull align 8 dereferenceable(16) %4) #3
  ret ptr %5
}

; Function Attrs: mustprogress nounwind uwtable
define linkonce_odr ptr @_ZNKSt8_Rb_treeIiSt4pairIKiN5Ipopt8SmartPtrINS2_7PColumnEEEESt10_Select1stIS6_ESt4lessIiESaIS6_EE3endEv(ptr noundef nonnull align 8 dereferenceable(48) %0) #6 comdat align 2 {
  %2 = alloca %"struct.std::_Rb_tree_const_iterator", align 8
  %3 = alloca ptr, align 8
  store ptr %0, ptr %3, align 8, !tbaa !233
  %4 = load ptr, ptr %3, align 8
  %5 = getelementptr inbounds nuw %"class.std::_Rb_tree", ptr %4, i32 0, i32 0
  %6 = getelementptr inbounds i8, ptr %5, i64 8
  %7 = getelementptr inbounds nuw %"struct.std::_Rb_tree_header", ptr %6, i32 0, i32 0
  call void @_ZNSt23_Rb_tree_const_iteratorISt4pairIKiN5Ipopt8SmartPtrINS2_7PColumnEEEEEC2EPKSt18_Rb_tree_node_base(ptr noundef nonnull align 8 dereferenceable(8) %2, ptr noundef %7) #3
  %8 = getelementptr inbounds nuw %"struct.std::_Rb_tree_const_iterator", ptr %2, i32 0, i32 0
  %9 = load ptr, ptr %8, align 8
  ret ptr %9
}

; Function Attrs: mustprogress nounwind uwtable
define linkonce_odr ptr @_ZNKSt8_Rb_treeIiSt4pairIKiN5Ipopt8SmartPtrINS2_7PColumnEEEESt10_Select1stIS6_ESt4lessIiESaIS6_EE5beginEv(ptr noundef nonnull align 8 dereferenceable(48) %0) #6 comdat align 2 {
  %2 = alloca %"struct.std::_Rb_tree_const_iterator", align 8
  %3 = alloca ptr, align 8
  store ptr %0, ptr %3, align 8, !tbaa !233
  %4 = load ptr, ptr %3, align 8
  %5 = getelementptr inbounds nuw %"class.std::_Rb_tree", ptr %4, i32 0, i32 0
  %6 = getelementptr inbounds i8, ptr %5, i64 8
  %7 = getelementptr inbounds nuw %"struct.std::_Rb_tree_header", ptr %6, i32 0, i32 0
  %8 = getelementptr inbounds nuw %"struct.std::_Rb_tree_node_base", ptr %7, i32 0, i32 2
  %9 = load ptr, ptr %8, align 8, !tbaa !247
  call void @_ZNSt23_Rb_tree_const_iteratorISt4pairIKiN5Ipopt8SmartPtrINS2_7PColumnEEEEEC2EPKSt18_Rb_tree_node_base(ptr noundef nonnull align 8 dereferenceable(8) %2, ptr noundef %9) #3
  %10 = getelementptr inbounds nuw %"struct.std::_Rb_tree_const_iterator", ptr %2, i32 0, i32 0
  %11 = load ptr, ptr %10, align 8
  ret ptr %11
}

; Function Attrs: noinline noreturn nounwind uwtable
define linkonce_odr hidden void @__clang_call_terminate(ptr noundef %0) #14 comdat {
  %2 = call ptr @__cxa_begin_catch(ptr %0) #3
  call void @_ZSt9terminatev() #20
  unreachable
}

; Function Attrs: mustprogress nounwind uwtable
define available_externally noundef ptr @_ZNKSt7__cxx1112basic_stringIcSt11char_traitsIcESaIcEE7_M_dataEv(ptr noundef nonnull align 8 dereferenceable(32) %0) #6 align 2 {
  %2 = alloca ptr, align 8
  store ptr %0, ptr %2, align 8, !tbaa !53
  %3 = load ptr, ptr %2, align 8
  %4 = getelementptr inbounds nuw %"class.std::__cxx11::basic_string", ptr %3, i32 0, i32 0
  %5 = getelementptr inbounds nuw %"struct.std::__cxx11::basic_string<char>::_Alloc_hider", ptr %4, i32 0, i32 0
  %6 = load ptr, ptr %5, align 8, !tbaa !304
  ret ptr %6
}

; Function Attrs: mustprogress nounwind uwtable
define linkonce_odr noundef nonnull align 8 dereferenceable(8) ptr @_ZNSt23_Rb_tree_const_iteratorISt4pairIKiN5Ipopt8SmartPtrINS2_7PColumnEEEEEppEv(ptr noundef nonnull align 8 dereferenceable(8) %0) #6 comdat align 2 {
  %2 = alloca ptr, align 8
  store ptr %0, ptr %2, align 8, !tbaa !207
  %3 = load ptr, ptr %2, align 8
  %4 = getelementptr inbounds nuw %"struct.std::_Rb_tree_const_iterator", ptr %3, i32 0, i32 0
  %5 = load ptr, ptr %4, align 8, !tbaa !209
  %6 = call noundef ptr @_ZSt18_Rb_tree_incrementPKSt18_Rb_tree_node_base(ptr noundef %5) #9
  %7 = getelementptr inbounds nuw %"struct.std::_Rb_tree_const_iterator", ptr %3, i32 0, i32 0
  store ptr %6, ptr %7, align 8, !tbaa !209
  ret ptr %3
}

; Function Attrs: mustprogress nounwind uwtable
define linkonce_odr noundef ptr @_ZNK5Ipopt8SmartPtrINS_7PColumnEEptEv(ptr noundef nonnull align 8 dereferenceable(8) %0) #6 comdat align 2 {
  %2 = alloca ptr, align 8
  store ptr %0, ptr %2, align 8, !tbaa !147
  %3 = load ptr, ptr %2, align 8
  %4 = getelementptr inbounds nuw %"class.Ipopt::SmartPtr.41", ptr %3, i32 0, i32 0
  %5 = load ptr, ptr %4, align 8, !tbaa !196
  ret ptr %5
}

; Function Attrs: mustprogress nounwind uwtable
define linkonce_odr noundef ptr @_ZNKSt23_Rb_tree_const_iteratorISt4pairIKiN5Ipopt8SmartPtrINS2_7PColumnEEEEEptEv(ptr noundef nonnull align 8 dereferenceable(8) %0) #6 comdat align 2 {
  %2 = alloca ptr, align 8
  store ptr %0, ptr %2, align 8, !tbaa !207
  %3 = load ptr, ptr %2, align 8
  %4 = getelementptr inbounds nuw %"struct.std::_Rb_tree_const_iterator", ptr %3, i32 0, i32 0
  %5 = load ptr, ptr %4, align 8, !tbaa !209
  %6 = call noundef ptr @_ZNKSt13_Rb_tree_nodeISt4pairIKiN5Ipopt8SmartPtrINS2_7PColumnEEEEE9_M_valptrEv(ptr noundef nonnull align 8 dereferenceable(48) %5)
  ret ptr %6
}

; Function Attrs: mustprogress nounwind uwtable
define linkonce_odr noundef zeroext i1 @_ZStneRKSt23_Rb_tree_const_iteratorISt4pairIKiN5Ipopt8SmartPtrINS2_7PColumnEEEEES9_(ptr noundef nonnull align 8 dereferenceable(8) %0, ptr noundef nonnull align 8 dereferenceable(8) %1) #6 comdat {
  %3 = alloca ptr, align 8
  %4 = alloca ptr, align 8
  store ptr %0, ptr %3, align 8, !tbaa !207
  store ptr %1, ptr %4, align 8, !tbaa !207
  %5 = load ptr, ptr %3, align 8, !tbaa !207
  %6 = getelementptr inbounds nuw %"struct.std::_Rb_tree_const_iterator", ptr %5, i32 0, i32 0
  %7 = load ptr, ptr %6, align 8, !tbaa !209
  %8 = load ptr, ptr %4, align 8, !tbaa !207
  %9 = getelementptr inbounds nuw %"struct.std::_Rb_tree_const_iterator", ptr %8, i32 0, i32 0
  %10 = load ptr, ptr %9, align 8, !tbaa !209
  %11 = icmp ne ptr %7, %10
  ret i1 %11
}

; Function Attrs: mustprogress nounwind uwtable
define linkonce_odr ptr @_ZNKSt3mapIiN5Ipopt8SmartPtrINS0_7PColumnEEESt4lessIiESaISt4pairIKiS3_EEE3endEv(ptr noundef nonnull align 8 dereferenceable(48) %0) #6 comdat align 2 {
  %2 = alloca %"struct.std::_Rb_tree_const_iterator", align 8
  %3 = alloca ptr, align 8
  store ptr %0, ptr %3, align 8, !tbaa !49
  %4 = load ptr, ptr %3, align 8
  %5 = getelementptr inbounds nuw %"class.std::map", ptr %4, i32 0, i32 0
  %6 = call ptr @_ZNKSt8_Rb_treeIiSt4pairIKiN5Ipopt8SmartPtrINS2_7PColumnEEEESt10_Select1stIS6_ESt4lessIiESaIS6_EE3endEv(ptr noundef nonnull align 8 dereferenceable(48) %5) #3
  %7 = getelementptr inbounds nuw %"struct.std::_Rb_tree_const_iterator", ptr %2, i32 0, i32 0
  store ptr %6, ptr %7, align 8
  %8 = getelementptr inbounds nuw %"struct.std::_Rb_tree_const_iterator", ptr %2, i32 0, i32 0
  %9 = load ptr, ptr %8, align 8
  ret ptr %9
}

; Function Attrs: mustprogress nounwind uwtable
define linkonce_odr ptr @_ZNKSt3mapIiN5Ipopt8SmartPtrINS0_7PColumnEEESt4lessIiESaISt4pairIKiS3_EEE5beginEv(ptr noundef nonnull align 8 dereferenceable(48) %0) #6 comdat align 2 {
  %2 = alloca %"struct.std::_Rb_tree_const_iterator", align 8
  %3 = alloca ptr, align 8
  store ptr %0, ptr %3, align 8, !tbaa !49
  %4 = load ptr, ptr %3, align 8
  %5 = getelementptr inbounds nuw %"class.std::map", ptr %4, i32 0, i32 0
  %6 = call ptr @_ZNKSt8_Rb_treeIiSt4pairIKiN5Ipopt8SmartPtrINS2_7PColumnEEEESt10_Select1stIS6_ESt4lessIiESaIS6_EE5beginEv(ptr noundef nonnull align 8 dereferenceable(48) %5) #3
  %7 = getelementptr inbounds nuw %"struct.std::_Rb_tree_const_iterator", ptr %2, i32 0, i32 0
  store ptr %6, ptr %7, align 8
  %8 = getelementptr inbounds nuw %"struct.std::_Rb_tree_const_iterator", ptr %2, i32 0, i32 0
  %9 = load ptr, ptr %8, align 8
  ret ptr %9
}

; Function Attrs: mustprogress nounwind uwtable
define available_externally noundef ptr @_ZNKSt7__cxx1112basic_stringIcSt11char_traitsIcESaIcEE5c_strEv(ptr noundef nonnull align 8 dereferenceable(32) %0) #6 align 2 personality ptr @__gxx_personality_v0 {
  %2 = alloca ptr, align 8
  store ptr %0, ptr %2, align 8, !tbaa !53
  %3 = load ptr, ptr %2, align 8
  %4 = invoke noundef ptr @_ZNKSt7__cxx1112basic_stringIcSt11char_traitsIcESaIcEE7_M_dataEv(ptr noundef nonnull align 8 dereferenceable(32) %3)
          to label %5 unwind label %6

5:                                                ; preds = %1
  ret ptr %4

6:                                                ; preds = %1
  %7 = landingpad { ptr, i32 }
          catch ptr null
  %8 = extractvalue { ptr, i32 } %7, 0
  call void @__clang_call_terminate(ptr %8) #20
  unreachable
}

; Function Attrs: mustprogress uwtable
define void @_ZNK5Ipopt16IndexPCalculator9PrintImplERKNS_10JournalistENS_13EJournalLevelENS_16EJournalCategoryERKNSt7__cxx1112basic_stringIcSt11char_traitsIcESaIcEEEiSD_(ptr noundef nonnull align 8 dereferenceable(136) %0, ptr noundef nonnull align 8 dereferenceable(40) %1, i32 noundef %2, i32 noundef %3, ptr noundef nonnull align 8 dereferenceable(32) %4, i32 noundef %5, ptr noundef nonnull align 8 dereferenceable(32) %6) unnamed_addr #5 align 2 {
  %8 = alloca ptr, align 8
  %9 = alloca ptr, align 8
  %10 = alloca i32, align 4
  %11 = alloca i32, align 4
  %12 = alloca ptr, align 8
  %13 = alloca i32, align 4
  %14 = alloca ptr, align 8
  %15 = alloca ptr, align 8
  %16 = alloca i32, align 4
  %17 = alloca %"struct.std::_Rb_tree_const_iterator", align 8
  %18 = alloca %"struct.std::_Rb_tree_const_iterator", align 8
  %19 = alloca i32, align 4
  %20 = alloca i32, align 4
  store ptr %0, ptr %8, align 8, !tbaa !3
  store ptr %1, ptr %9, align 8, !tbaa !104
  store i32 %2, ptr %10, align 4, !tbaa !105
  store i32 %3, ptr %11, align 4, !tbaa !107
  store ptr %4, ptr %12, align 8, !tbaa !53
  store i32 %5, ptr %13, align 4, !tbaa !55
  store ptr %6, ptr %14, align 8, !tbaa !53
  %21 = load ptr, ptr %8, align 8
  call void @llvm.lifetime.start.p0(i64 8, ptr %15) #3
  %22 = load ptr, ptr %9, align 8, !tbaa !104
  %23 = load i32, ptr %10, align 4, !tbaa !105
  %24 = load i32, ptr %11, align 4, !tbaa !107
  %25 = load i32, ptr %13, align 4, !tbaa !55
  %26 = load ptr, ptr %14, align 8, !tbaa !53
  %27 = call noundef ptr @_ZNKSt7__cxx1112basic_stringIcSt11char_traitsIcESaIcEE5c_strEv(ptr noundef nonnull align 8 dereferenceable(32) %26) #3
  %28 = load ptr, ptr %12, align 8, !tbaa !53
  %29 = call noundef ptr @_ZNKSt7__cxx1112basic_stringIcSt11char_traitsIcESaIcEE5c_strEv(ptr noundef nonnull align 8 dereferenceable(32) %28) #3
  %30 = getelementptr inbounds nuw %"class.Ipopt::IndexPCalculator", ptr %21, i32 0, i32 1
  %31 = load i32, ptr %30, align 8, !tbaa !14
  %32 = getelementptr inbounds nuw %"class.Ipopt::IndexPCalculator", ptr %21, i32 0, i32 2
  %33 = load i32, ptr %32, align 4, !tbaa !44
  %34 = load ptr, ptr %22, align 8, !tbaa !12
  %35 = getelementptr inbounds ptr, ptr %34, i64 4
  %36 = load ptr, ptr %35, align 8
  call void (ptr, i32, i32, i32, ptr, ...) %36(ptr noundef nonnull align 8 dereferenceable(40) %22, i32 noundef %23, i32 noundef %24, i32 noundef %25, ptr noundef @.str.2, ptr noundef %27, ptr noundef %29, i32 noundef %31, i32 noundef %33)
  call void @llvm.lifetime.start.p0(i64 4, ptr %16) #3
  store i32 0, ptr %16, align 4, !tbaa !55
  call void @llvm.lifetime.start.p0(i64 8, ptr %17) #3
  %37 = getelementptr inbounds nuw %"class.Ipopt::IndexPCalculator", ptr %21, i32 0, i32 3
  %38 = call ptr @_ZNKSt3mapIiN5Ipopt8SmartPtrINS0_7PColumnEEESt4lessIiESaISt4pairIKiS3_EEE5beginEv(ptr noundef nonnull align 8 dereferenceable(48) %37) #3
  %39 = getelementptr inbounds nuw %"struct.std::_Rb_tree_const_iterator", ptr %17, i32 0, i32 0
  store ptr %38, ptr %39, align 8
  br label %40

40:                                               ; preds = %85, %7
  call void @llvm.lifetime.start.p0(i64 8, ptr %18) #3
  %41 = getelementptr inbounds nuw %"class.Ipopt::IndexPCalculator", ptr %21, i32 0, i32 3
  %42 = call ptr @_ZNKSt3mapIiN5Ipopt8SmartPtrINS0_7PColumnEEESt4lessIiESaISt4pairIKiS3_EEE3endEv(ptr noundef nonnull align 8 dereferenceable(48) %41) #3
  %43 = getelementptr inbounds nuw %"struct.std::_Rb_tree_const_iterator", ptr %18, i32 0, i32 0
  store ptr %42, ptr %43, align 8
  %44 = call noundef zeroext i1 @_ZStneRKSt23_Rb_tree_const_iteratorISt4pairIKiN5Ipopt8SmartPtrINS2_7PColumnEEEEES9_(ptr noundef nonnull align 8 dereferenceable(8) %17, ptr noundef nonnull align 8 dereferenceable(8) %18) #3
  call void @llvm.lifetime.end.p0(i64 8, ptr %18) #3
  br i1 %44, label %46, label %45

45:                                               ; preds = %40
  store i32 2, ptr %19, align 4
  call void @llvm.lifetime.end.p0(i64 8, ptr %17) #3
  br label %87

46:                                               ; preds = %40
  %47 = call noundef ptr @_ZNKSt23_Rb_tree_const_iteratorISt4pairIKiN5Ipopt8SmartPtrINS2_7PColumnEEEEEptEv(ptr noundef nonnull align 8 dereferenceable(8) %17) #3
  %48 = getelementptr inbounds nuw %"struct.std::pair", ptr %47, i32 0, i32 1
  %49 = call noundef ptr @_ZNK5Ipopt8SmartPtrINS_7PColumnEEptEv(ptr noundef nonnull align 8 dereferenceable(8) %48)
  %50 = load ptr, ptr %49, align 8, !tbaa !12
  %51 = getelementptr inbounds ptr, ptr %50, i64 3
  %52 = load ptr, ptr %51, align 8
  %53 = call noundef ptr %52(ptr noundef nonnull align 8 dereferenceable(24) %49)
  store ptr %53, ptr %15, align 8, !tbaa !116
  call void @llvm.lifetime.start.p0(i64 4, ptr %20) #3
  store i32 0, ptr %20, align 4, !tbaa !55
  br label %54

54:                                               ; preds = %79, %46
  %55 = load i32, ptr %20, align 4, !tbaa !55
  %56 = getelementptr inbounds nuw %"class.Ipopt::IndexPCalculator", ptr %21, i32 0, i32 1
  %57 = load i32, ptr %56, align 8, !tbaa !14
  %58 = icmp slt i32 %55, %57
  br i1 %58, label %60, label %59

59:                                               ; preds = %54
  store i32 5, ptr %19, align 4
  call void @llvm.lifetime.end.p0(i64 4, ptr %20) #3
  br label %82

60:                                               ; preds = %54
  %61 = load ptr, ptr %9, align 8, !tbaa !104
  %62 = load i32, ptr %10, align 4, !tbaa !105
  %63 = load i32, ptr %11, align 4, !tbaa !107
  %64 = load i32, ptr %13, align 4, !tbaa !55
  %65 = load ptr, ptr %14, align 8, !tbaa !53
  %66 = call noundef ptr @_ZNKSt7__cxx1112basic_stringIcSt11char_traitsIcESaIcEE5c_strEv(ptr noundef nonnull align 8 dereferenceable(32) %65) #3
  %67 = load ptr, ptr %12, align 8, !tbaa !53
  %68 = call noundef ptr @_ZNKSt7__cxx1112basic_stringIcSt11char_traitsIcESaIcEE5c_strEv(ptr noundef nonnull align 8 dereferenceable(32) %67) #3
  %69 = load i32, ptr %20, align 4, !tbaa !55
  %70 = load i32, ptr %16, align 4, !tbaa !55
  %71 = load ptr, ptr %15, align 8, !tbaa !116
  %72 = load i32, ptr %20, align 4, !tbaa !55
  %73 = sext i32 %72 to i64
  %74 = getelementptr inbounds double, ptr %71, i64 %73
  %75 = load double, ptr %74, align 8, !tbaa !204
  %76 = load ptr, ptr %61, align 8, !tbaa !12
  %77 = getelementptr inbounds ptr, ptr %76, i64 4
  %78 = load ptr, ptr %77, align 8
  call void (ptr, i32, i32, i32, ptr, ...) %78(ptr noundef nonnull align 8 dereferenceable(40) %61, i32 noundef %62, i32 noundef %63, i32 noundef %64, ptr noundef @.str.3, ptr noundef %66, ptr noundef %68, i32 noundef %69, i32 noundef %70, double noundef %75)
  br label %79

79:                                               ; preds = %60
  %80 = load i32, ptr %20, align 4, !tbaa !55
  %81 = add nsw i32 %80, 1
  store i32 %81, ptr %20, align 4, !tbaa !55
  br label %54, !llvm.loop !205

82:                                               ; preds = %59
  %83 = load i32, ptr %16, align 4, !tbaa !55
  %84 = add nsw i32 %83, 1
  store i32 %84, ptr %16, align 4, !tbaa !55
  br label %85

85:                                               ; preds = %82
  %86 = call noundef nonnull align 8 dereferenceable(8) ptr @_ZNSt23_Rb_tree_const_iteratorISt4pairIKiN5Ipopt8SmartPtrINS2_7PColumnEEEEEppEv(ptr noundef nonnull align 8 dereferenceable(8) %17) #3
  br label %40, !llvm.loop !206

87:                                               ; preds = %45
  call void @llvm.lifetime.end.p0(i64 4, ptr %16) #3
  call void @llvm.lifetime.end.p0(i64 8, ptr %15) #3
  ret void
}