; Function Attrs: mustprogress uwtable
define void @_ZNK5Ipopt16IndexPCalculator9PrintImplERKNS_10JournalistENS_13EJournalLevelENS_16EJournalCategoryERKNSt7__cxx1112basic_stringIcSt11char_traitsIcESaIcEEEiSD_(ptr noundef nonnull readonly align 8 dereferenceable(136) %0, ptr noundef nonnull align 8 dereferenceable(40) %1, i32 noundef %2, i32 noundef %3, ptr noundef nonnull readonly align 8 captures(none) dereferenceable(32) %4, i32 noundef %5, ptr noundef nonnull readonly align 8 captures(none) dereferenceable(32) %6) unnamed_addr #4 align 2 personality ptr @__gxx_personality_v0 {
  %8 = load ptr, ptr %6, align 8, !tbaa !119
  %9 = load ptr, ptr %4, align 8, !tbaa !119
  %10 = getelementptr inbounds nuw i8, ptr %0, i64 80
  %11 = load i32, ptr %10, align 8, !tbaa !22
  %12 = getelementptr inbounds nuw i8, ptr %0, i64 84
  %13 = load i32, ptr %12, align 4, !tbaa !45
  %14 = load ptr, ptr %1, align 8, !tbaa !15
  %15 = getelementptr inbounds nuw i8, ptr %14, i64 32
  %16 = load ptr, ptr %15, align 8
  tail call void (ptr, i32, i32, i32, ptr, ...) %16(ptr noundef nonnull align 8 dereferenceable(40) %1, i32 noundef %2, i32 noundef %3, i32 noundef %5, ptr noundef nonnull @.str.2, ptr noundef %8, ptr noundef %9, i32 noundef %11, i32 noundef %13)
  %17 = getelementptr inbounds nuw i8, ptr %0, i64 112
  %18 = load ptr, ptr %17, align 8, !tbaa !48
  %19 = getelementptr inbounds nuw i8, ptr %0, i64 96
  %.not24 = icmp eq ptr %18, %19
  br i1 %.not24, label %._crit_edge29, label %.lr.ph28

._crit_edge29:                                    ; preds = %._crit_edge, %7
  ret void

.lr.ph28:                                         ; preds = %7, %._crit_edge
  %.01926 = phi i32 [ %28, %._crit_edge ], [ 0, %7 ]
  %.sroa.020.025 = phi ptr [ %29, %._crit_edge ], [ %18, %7 ]
  %20 = getelementptr inbounds nuw i8, ptr %.sroa.020.025, i64 40
  %21 = load ptr, ptr %20, align 8, !tbaa !154
  %22 = load ptr, ptr %21, align 8, !tbaa !15
  %23 = getelementptr inbounds nuw i8, ptr %22, i64 24
  %24 = load ptr, ptr %23, align 8
  %25 = tail call noundef ptr %24(ptr noundef nonnull align 8 dereferenceable(24) %21)
  %26 = load i32, ptr %10, align 8, !tbaa !22
  %27 = icmp sgt i32 %26, 0
  br i1 %27, label %.lr.ph, label %._crit_edge

._crit_edge:                                      ; preds = %.lr.ph, %.lr.ph28
  %28 = add nuw nsw i32 %.01926, 1
  %29 = tail call noundef ptr @_ZSt18_Rb_tree_incrementPKSt18_Rb_tree_node_base(ptr noundef nonnull %.sroa.020.025) #26
  %.not = icmp eq ptr %29, %19
  br i1 %.not, label %._crit_edge29, label %.lr.ph28, !llvm.loop !197

.lr.ph:                                           ; preds = %.lr.ph28, %.lr.ph
  %indvars.iv = phi i64 [ %indvars.iv.next, %.lr.ph ], [ 0, %.lr.ph28 ]
  %30 = load ptr, ptr %6, align 8, !tbaa !119
  %31 = load ptr, ptr %4, align 8, !tbaa !119
  %32 = getelementptr inbounds nuw double, ptr %25, i64 %indvars.iv
  %33 = load double, ptr %32, align 8, !tbaa !198
  %34 = load ptr, ptr %1, align 8, !tbaa !15
  %35 = getelementptr inbounds nuw i8, ptr %34, i64 32
  %36 = load ptr, ptr %35, align 8
  %37 = trunc nuw nsw i64 %indvars.iv to i32
  tail call void (ptr, i32, i32, i32, ptr, ...) %36(ptr noundef nonnull align 8 dereferenceable(40) %1, i32 noundef %2, i32 noundef %3, i32 noundef %5, ptr noundef nonnull @.str.3, ptr noundef %30, ptr noundef %31, i32 noundef %37, i32 noundef %.01926, double noundef %33)
  %indvars.iv.next = add nuw nsw i64 %indvars.iv, 1
  %38 = load i32, ptr %10, align 8, !tbaa !22
  %39 = sext i32 %38 to i64
  %40 = icmp slt i64 %indvars.iv.next, %39
  br i1 %40, label %.lr.ph, label %._crit_edge, !llvm.loop !199
}